; Function Attrs: mustprogress nofree norecurse nosync nounwind willreturn memory(argmem: read) uwtable
define hidden noundef ptr @_ZNK4cvc58internal6theory5arith6linear15ValueCollection7nonNullEv(ptr nocapture noundef nonnull readonly align 8 dereferenceable(32) %this) local_unnamed_addr #7 align 2 {
entry:
  %0 = load ptr, ptr %this, align 8
  %cmp.i.not = icmp eq ptr %0, null
  br i1 %cmp.i.not, label %if.else, label %return

if.else:                                          ; preds = %entry
  %d_upperBound.i = getelementptr inbounds i8, ptr %this, i64 8
  %1 = load ptr, ptr %d_upperBound.i, align 8
  %cmp.i1.not = icmp eq ptr %1, null
  br i1 %cmp.i1.not, label %if.else4, label %return

if.else4:                                         ; preds = %if.else
  %d_equality.i = getelementptr inbounds i8, ptr %this, i64 16
  %2 = load ptr, ptr %d_equality.i, align 8
  %cmp.i2.not = icmp eq ptr %2, null
  br i1 %cmp.i2.not, label %if.else7, label %return

if.else7:                                         ; preds = %if.else4
  %d_disequality.i = getelementptr inbounds i8, ptr %this, i64 24
  %3 = load ptr, ptr %d_disequality.i, align 8
  br label %return

return:                                           ; preds = %if.else7, %if.else4, %if.else, %entry
  %retval.0 = phi ptr [ %0, %entry ], [ %1, %if.else ], [ %2, %if.else4 ], [ %3, %if.else7 ]
  ret ptr %retval.0
}